target datalayout = "e-m:e-p270:32:32-p271:32:32-p272:64:64-i64:64-i128:128-f80:128-n8:16:32:64-S128"
target triple = "x86_64-pc-linux-gnu"

%struct.Aig_RMan_t_ = type { i32, ptr, i32, ptr, i32, ptr, ptr, [128 x i32], [128 x i32], [128 x i32], [128 x i32], [24 x %struct.Aig_VSig_t_], [12 x i8], [12 x i8], [13 x i32], i32, i32, i32, i32, i32 }
%struct.Aig_VSig_t_ = type { i32, [12 x i32] }
%struct.Aig_Man_t_ = type { ptr, ptr, ptr, ptr, ptr, ptr, ptr, %struct.Aig_Obj_t_, i32, i32, i32, i32, i32, i32, [7 x i32], i32, ptr, i32, ptr, i32, ptr, i32, i32, i32, ptr, i32, i32, i32, i32, i32, ptr, ptr, i32, ptr, ptr, i32, ptr, ptr, i32, i32, i32, ptr, ptr, ptr, ptr, ptr, ptr, ptr, ptr, ptr, ptr, ptr, ptr, ptr, ptr, i32, ptr, ptr, ptr, ptr, i32, i64, i64, i64, ptr, ptr }
%struct.Aig_Obj_t_ = type { %union.anon, ptr, ptr, i64, i32, i32, %union.anon.0 }
%union.anon = type { ptr }
%union.anon.0 = type { ptr }

@.str.21 = private unnamed_addr constant [23 x i8] c"Decomposition failed.\0A\00", align 1

; Function Attrs: inlinehint nounwind uwtable
define internal ptr @Aig_NotCond(ptr noundef %0, i32 noundef %1) #5 {
  %3 = alloca ptr, align 8
  %4 = alloca i32, align 4
  store ptr %0, ptr %3, align 8, !tbaa !78
  store i32 %1, ptr %4, align 4, !tbaa !25
  %5 = load ptr, ptr %3, align 8, !tbaa !78
  %6 = ptrtoint ptr %5 to i64
  %7 = load i32, ptr %4, align 4, !tbaa !25
  %8 = sext i32 %7 to i64
  %9 = xor i64 %6, %8
  %10 = inttoptr i64 %9 to ptr
  ret ptr %10
}

; Function Attrs: inlinehint nounwind uwtable
define internal i32 @Bdc_IsComplement(ptr noundef %0) #5 {
  %2 = alloca ptr, align 8
  store ptr %0, ptr %2, align 8, !tbaa !75
  %3 = load ptr, ptr %2, align 8, !tbaa !75
  %4 = ptrtoint ptr %3 to i64
  %5 = and i64 %4, 1
  %6 = trunc i64 %5 to i32
  ret i32 %6
}

; Function Attrs: inlinehint nounwind uwtable
define internal ptr @Bdc_Regular(ptr noundef %0) #5 {
  %2 = alloca ptr, align 8
  store ptr %0, ptr %2, align 8, !tbaa !75
  %3 = load ptr, ptr %2, align 8, !tbaa !75
  %4 = ptrtoint ptr %3 to i64
  %5 = and i64 %4, -2
  %6 = inttoptr i64 %5 to ptr
  ret ptr %6
}

; Function Attrs: inlinehint nounwind uwtable
define internal ptr @Bdc_FunCopyHop(ptr noundef %0) #5 {
  %2 = alloca ptr, align 8
  store ptr %0, ptr %2, align 8, !tbaa !75
  %3 = load ptr, ptr %2, align 8, !tbaa !75
  %4 = call ptr @Bdc_Regular(ptr noundef %3)
  %5 = call ptr @Bdc_FuncCopy(ptr noundef %4)
  %6 = load ptr, ptr %2, align 8, !tbaa !75
  %7 = call i32 @Bdc_IsComplement(ptr noundef %6)
  %8 = call ptr @Aig_NotCond(ptr noundef %5, i32 noundef %7)
  ret ptr %8
}

; Function Attrs: inlinehint nounwind uwtable
define internal ptr @Aig_ManConst1(ptr noundef %0) #5 {
  %2 = alloca ptr, align 8
  store ptr %0, ptr %2, align 8, !tbaa !80
  %3 = load ptr, ptr %2, align 8, !tbaa !80
  %4 = getelementptr inbounds nuw %struct.Aig_Man_t_, ptr %3, i32 0, i32 6
  %5 = load ptr, ptr %4, align 8, !tbaa !81
  ret ptr %5
}

; Function Attrs: nounwind uwtable
define void @Aig_RManSaveOne(ptr noundef %0, ptr noundef %1, i32 noundef %2) #0 {
  %4 = alloca ptr, align 8
  %5 = alloca ptr, align 8
  %6 = alloca i32, align 4
  %7 = alloca i32, align 4
  %8 = alloca i32, align 4
  %9 = alloca i32, align 4
  %10 = alloca ptr, align 8
  %11 = alloca ptr, align 8
  %12 = alloca i32, align 4
  store ptr %0, ptr %4, align 8, !tbaa !3
  store ptr %1, ptr %5, align 8, !tbaa !29
  store i32 %2, ptr %6, align 4, !tbaa !25
  call void @llvm.lifetime.start.p0(i64 4, ptr %7) #10
  call void @llvm.lifetime.start.p0(i64 4, ptr %8) #10
  call void @llvm.lifetime.start.p0(i64 4, ptr %9) #10
  call void @llvm.lifetime.start.p0(i64 8, ptr %10) #10
  call void @llvm.lifetime.start.p0(i64 8, ptr %11) #10
  %13 = load ptr, ptr %4, align 8, !tbaa !3
  %14 = getelementptr inbounds nuw %struct.Aig_RMan_t_, ptr %13, i32 0, i32 6
  %15 = load ptr, ptr %14, align 8, !tbaa !24
  %16 = load ptr, ptr %5, align 8, !tbaa !29
  %17 = load i32, ptr %6, align 4, !tbaa !25
  %18 = call i32 @Bdc_ManDecompose(ptr noundef %15, ptr noundef %16, ptr noundef null, i32 noundef %17, ptr noundef null, i32 noundef 1000)
  store i32 %18, ptr %9, align 4, !tbaa !25
  %19 = load i32, ptr %9, align 4, !tbaa !25
  %20 = icmp slt i32 %19, 0
  br i1 %20, label %21, label %23

21:                                               ; preds = %3
  %22 = call i32 (ptr, ...) @printf(ptr noundef @.str.21)
  store i32 1, ptr %12, align 4
  br label %93

23:                                               ; preds = %3
  %24 = load ptr, ptr %4, align 8, !tbaa !3
  %25 = getelementptr inbounds nuw %struct.Aig_RMan_t_, ptr %24, i32 0, i32 6
  %26 = load ptr, ptr %25, align 8, !tbaa !24
  %27 = call ptr @Bdc_ManFunc(ptr noundef %26, i32 noundef 0)
  %28 = load ptr, ptr %4, align 8, !tbaa !3
  %29 = getelementptr inbounds nuw %struct.Aig_RMan_t_, ptr %28, i32 0, i32 1
  %30 = load ptr, ptr %29, align 8, !tbaa !15
  %31 = call ptr @Aig_ManConst1(ptr noundef %30)
  call void @Bdc_FuncSetCopy(ptr noundef %27, ptr noundef %31)
  store i32 0, ptr %7, align 4, !tbaa !25
  br label %32

32:                                               ; preds = %48, %23
  %33 = load i32, ptr %7, align 4, !tbaa !25
  %34 = load i32, ptr %6, align 4, !tbaa !25
  %35 = icmp slt i32 %33, %34
  br i1 %35, label %36, label %51

36:                                               ; preds = %32
  %37 = load ptr, ptr %4, align 8, !tbaa !3
  %38 = getelementptr inbounds nuw %struct.Aig_RMan_t_, ptr %37, i32 0, i32 6
  %39 = load ptr, ptr %38, align 8, !tbaa !24
  %40 = load i32, ptr %7, align 4, !tbaa !25
  %41 = add nsw i32 %40, 1
  %42 = call ptr @Bdc_ManFunc(ptr noundef %39, i32 noundef %41)
  %43 = load ptr, ptr %4, align 8, !tbaa !3
  %44 = getelementptr inbounds nuw %struct.Aig_RMan_t_, ptr %43, i32 0, i32 1
  %45 = load ptr, ptr %44, align 8, !tbaa !15
  %46 = load i32, ptr %7, align 4, !tbaa !25
  %47 = call ptr @Aig_IthVar(ptr noundef %45, i32 noundef %46)
  call void @Bdc_FuncSetCopy(ptr noundef %42, ptr noundef %47)
  br label %48

48:                                               ; preds = %36
  %49 = load i32, ptr %7, align 4, !tbaa !25
  %50 = add nsw i32 %49, 1
  store i32 %50, ptr %7, align 4, !tbaa !25
  br label %32, !llvm.loop !74

51:                                               ; preds = %32
  %52 = load ptr, ptr %4, align 8, !tbaa !3
  %53 = getelementptr inbounds nuw %struct.Aig_RMan_t_, ptr %52, i32 0, i32 6
  %54 = load ptr, ptr %53, align 8, !tbaa !24
  %55 = call i32 @Bdc_ManNodeNum(ptr noundef %54)
  store i32 %55, ptr %8, align 4, !tbaa !25
  %56 = load i32, ptr %6, align 4, !tbaa !25
  %57 = add nsw i32 %56, 1
  store i32 %57, ptr %7, align 4, !tbaa !25
  br label %58

58:                                               ; preds = %79, %51
  %59 = load i32, ptr %7, align 4, !tbaa !25
  %60 = load i32, ptr %8, align 4, !tbaa !25
  %61 = icmp slt i32 %59, %60
  br i1 %61, label %62, label %82

62:                                               ; preds = %58
  %63 = load ptr, ptr %4, align 8, !tbaa !3
  %64 = getelementptr inbounds nuw %struct.Aig_RMan_t_, ptr %63, i32 0, i32 6
  %65 = load ptr, ptr %64, align 8, !tbaa !24
  %66 = load i32, ptr %7, align 4, !tbaa !25
  %67 = call ptr @Bdc_ManFunc(ptr noundef %65, i32 noundef %66)
  store ptr %67, ptr %10, align 8, !tbaa !75
  %68 = load ptr, ptr %10, align 8, !tbaa !75
  %69 = load ptr, ptr %4, align 8, !tbaa !3
  %70 = getelementptr inbounds nuw %struct.Aig_RMan_t_, ptr %69, i32 0, i32 1
  %71 = load ptr, ptr %70, align 8, !tbaa !15
  %72 = load ptr, ptr %10, align 8, !tbaa !75
  %73 = call ptr @Bdc_FuncFanin0(ptr noundef %72)
  %74 = call ptr @Bdc_FunCopyHop(ptr noundef %73)
  %75 = load ptr, ptr %10, align 8, !tbaa !75
  %76 = call ptr @Bdc_FuncFanin1(ptr noundef %75)
  %77 = call ptr @Bdc_FunCopyHop(ptr noundef %76)
  %78 = call ptr @Aig_And(ptr noundef %71, ptr noundef %74, ptr noundef %77)
  call void @Bdc_FuncSetCopy(ptr noundef %68, ptr noundef %78)
  br label %79

79:                                               ; preds = %62
  %80 = load i32, ptr %7, align 4, !tbaa !25
  %81 = add nsw i32 %80, 1
  store i32 %81, ptr %7, align 4, !tbaa !25
  br label %58, !llvm.loop !77

82:                                               ; preds = %58
  %83 = load ptr, ptr %4, align 8, !tbaa !3
  %84 = getelementptr inbounds nuw %struct.Aig_RMan_t_, ptr %83, i32 0, i32 6
  %85 = load ptr, ptr %84, align 8, !tbaa !24
  %86 = call ptr @Bdc_ManRoot(ptr noundef %85)
  %87 = call ptr @Bdc_FunCopyHop(ptr noundef %86)
  store ptr %87, ptr %11, align 8, !tbaa !78
  %88 = load ptr, ptr %4, align 8, !tbaa !3
  %89 = getelementptr inbounds nuw %struct.Aig_RMan_t_, ptr %88, i32 0, i32 1
  %90 = load ptr, ptr %89, align 8, !tbaa !15
  %91 = load ptr, ptr %11, align 8, !tbaa !78
  %92 = call ptr @Aig_ObjCreateCo(ptr noundef %90, ptr noundef %91)
  store ptr %92, ptr %11, align 8, !tbaa !78
  store i32 0, ptr %12, align 4
  br label %93

93:                                               ; preds = %82, %21
  call void @llvm.lifetime.end.p0(i64 8, ptr %11) #10
  call void @llvm.lifetime.end.p0(i64 8, ptr %10) #10
  call void @llvm.lifetime.end.p0(i64 4, ptr %9) #10
  call void @llvm.lifetime.end.p0(i64 4, ptr %8) #10
  call void @llvm.lifetime.end.p0(i64 4, ptr %7) #10
  %94 = load i32, ptr %12, align 4
  switch i32 %94, label %96 [
    i32 0, label %95
    i32 1, label %95
  ]

95:                                               ; preds = %93, %93
  ret void

96:                                               ; preds = %93
  unreachable
}