; Function Attrs: nounwind uwtable
define void @Aig_RManSaveOne(ptr noundef readonly captures(none) %0, ptr noundef %1, i32 noundef %2) local_unnamed_addr #0 {
  %4 = getelementptr inbounds nuw i8, ptr %0, i64 48
  %5 = load ptr, ptr %4, align 8, !tbaa !23
  %6 = tail call i32 @Bdc_ManDecompose(ptr noundef %5, ptr noundef %1, ptr noundef null, i32 noundef %2, ptr noundef null, i32 noundef 1000) #16
  %7 = icmp slt i32 %6, 0
  br i1 %7, label %8, label %9

8:                                                ; preds = %3
  %puts = tail call i32 @puts(ptr nonnull dereferenceable(1) @str.1)
  br label %58

9:                                                ; preds = %3
  %10 = load ptr, ptr %4, align 8, !tbaa !23
  %11 = tail call ptr @Bdc_ManFunc(ptr noundef %10, i32 noundef 0) #16
  %12 = getelementptr inbounds nuw i8, ptr %0, i64 8
  %13 = load ptr, ptr %12, align 8, !tbaa !13
  %14 = getelementptr i8, ptr %13, i64 48
  %.val = load ptr, ptr %14, align 8, !tbaa !62
  tail call void @Bdc_FuncSetCopy(ptr noundef %11, ptr noundef %.val) #16
  %15 = icmp sgt i32 %2, 0
  br i1 %15, label %.lr.ph, label %._crit_edge

.lr.ph:                                           ; preds = %9, %.lr.ph
  %.027 = phi i32 [ %17, %.lr.ph ], [ 0, %9 ]
  %16 = load ptr, ptr %4, align 8, !tbaa !23
  %17 = add nuw nsw i32 %.027, 1
  %18 = tail call ptr @Bdc_ManFunc(ptr noundef %16, i32 noundef %17) #16
  %19 = load ptr, ptr %12, align 8, !tbaa !13
  %20 = tail call ptr @Aig_IthVar(ptr noundef %19, i32 noundef %.027) #16
  tail call void @Bdc_FuncSetCopy(ptr noundef %18, ptr noundef %20) #16
  %exitcond.not = icmp eq i32 %17, %2
  br i1 %exitcond.not, label %._crit_edge, label %.lr.ph, !llvm.loop !75

._crit_edge:                                      ; preds = %.lr.ph, %9
  %21 = load ptr, ptr %4, align 8, !tbaa !23
  %22 = tail call i32 @Bdc_ManNodeNum(ptr noundef %21) #16
  %.128 = add nsw i32 %2, 1
  %23 = icmp slt i32 %.128, %22
  br i1 %23, label %.lr.ph31, label %._crit_edge32

.lr.ph31:                                         ; preds = %._crit_edge, %.lr.ph31
  %.129 = phi i32 [ %.1, %.lr.ph31 ], [ %.128, %._crit_edge ]
  %24 = load ptr, ptr %4, align 8, !tbaa !23
  %25 = tail call ptr @Bdc_ManFunc(ptr noundef %24, i32 noundef %.129) #16
  %26 = load ptr, ptr %12, align 8, !tbaa !13
  %27 = tail call ptr @Bdc_FuncFanin0(ptr noundef %25) #16
  %28 = ptrtoint ptr %27 to i64
  %29 = and i64 %28, -2
  %30 = inttoptr i64 %29 to ptr
  %31 = tail call ptr @Bdc_FuncCopy(ptr noundef %30) #16
  %32 = and i64 %28, 1
  %33 = ptrtoint ptr %31 to i64
  %34 = xor i64 %32, %33
  %35 = inttoptr i64 %34 to ptr
  %36 = tail call ptr @Bdc_FuncFanin1(ptr noundef %25) #16
  %37 = ptrtoint ptr %36 to i64
  %38 = and i64 %37, -2
  %39 = inttoptr i64 %38 to ptr
  %40 = tail call ptr @Bdc_FuncCopy(ptr noundef %39) #16
  %41 = and i64 %37, 1
  %42 = ptrtoint ptr %40 to i64
  %43 = xor i64 %41, %42
  %44 = inttoptr i64 %43 to ptr
  %45 = tail call ptr @Aig_And(ptr noundef %26, ptr noundef %35, ptr noundef %44) #16
  tail call void @Bdc_FuncSetCopy(ptr noundef %25, ptr noundef %45) #16
  %.1 = add i32 %.129, 1
  %exitcond33.not = icmp eq i32 %.1, %22
  br i1 %exitcond33.not, label %._crit_edge32, label %.lr.ph31, !llvm.loop !76

._crit_edge32:                                    ; preds = %.lr.ph31, %._crit_edge
  %46 = load ptr, ptr %4, align 8, !tbaa !23
  %47 = tail call ptr @Bdc_ManRoot(ptr noundef %46) #16
  %48 = ptrtoint ptr %47 to i64
  %49 = and i64 %48, -2
  %50 = inttoptr i64 %49 to ptr
  %51 = tail call ptr @Bdc_FuncCopy(ptr noundef %50) #16
  %52 = and i64 %48, 1
  %53 = ptrtoint ptr %51 to i64
  %54 = xor i64 %52, %53
  %55 = inttoptr i64 %54 to ptr
  %56 = load ptr, ptr %12, align 8, !tbaa !13
  %57 = tail call ptr @Aig_ObjCreateCo(ptr noundef %56, ptr noundef %55) #16
  br label %58

58:                                               ; preds = %._crit_edge32, %8
  ret void
}